target datalayout = "e-m:e-p270:32:32-p271:32:32-p272:64:64-i64:64-i128:128-f80:128-n8:16:32:64-S128"
target triple = "x86_64-pc-linux-gnu"

%struct.expert_field = type { i32, i32 }
%struct.nstime_t = type { i64, i32 }
%struct._address = type { i32, i32, ptr, ptr }
%struct._packet_info = type { ptr, ptr, i32, i32, %struct.nstime_t, %struct.nstime_t, %struct.nstime_t, i8, ptr, ptr, ptr, ptr, %struct._address, %struct._address, %struct._address, %struct._address, %struct._address, %struct._address, i32, ptr, i8, [3 x i8], %struct.anon, i32, i32, i32, i32, ptr, i8, ptr, ptr, i16, i16, i32, i32, i16, i32, i32, ptr, ptr, ptr, i8, i8, i16, i16, i16, i32, i16, i16, ptr, ptr, ptr, ptr, ptr, i32, i32 }
%struct.anon = type { i8, [3 x i8] }
%struct._rtpproxy_conv_info = type { ptr }
%struct._rtpproxy_info = type { i32, i32, %struct.nstime_t, ptr }
%struct._frame_data = type <{ i32, i32, i32, i32, i32, [4 x i8], i64, ptr, ptr, ptr, i8, i16, [5 x i8], %struct.nstime_t, %struct.nstime_t, i32, i32 }>
%struct._proto_node = type { ptr, ptr, ptr, ptr, ptr, ptr, ptr }
%struct.field_info = type { ptr, i32, i32, i32, i32, i32, i32, ptr, ptr, ptr, i32, i32 }

@hf_rtpproxy_request_in = internal global i32 0, align 4
@hf_rtpproxy_response_in = internal global i32 0, align 4
@hf_rtpproxy_response_time = internal global i32 0, align 4
@ei_rtpproxy_timeout = internal global %struct.expert_field zeroinitializer, align 4
@rtpproxy_timeout_ns = internal global %struct.nstime_t zeroinitializer, align 8
@.str.155 = private unnamed_addr constant [30 x i8] c"Response timeout %.3f seconds\00", align 1

; Function Attrs: inlinehint nounwind null_pointer_is_valid sspstrong uwtable
define internal void @proto_item_set_generated(ptr noundef %0) #5 {
  %2 = alloca ptr, align 8
  store ptr %0, ptr %2, align 8
  %3 = load ptr, ptr %2, align 8
  %4 = icmp ne ptr %3, null
  br i1 %4, label %5, label %24

5:                                                ; preds = %1
  br label %6

6:                                                ; preds = %5
  %7 = load ptr, ptr %2, align 8
  %8 = getelementptr inbounds nuw %struct._proto_node, ptr %7, i32 0, i32 5
  %9 = load ptr, ptr %8, align 8
  %10 = icmp ne ptr %9, null
  br i1 %10, label %11, label %22

11:                                               ; preds = %6
  %12 = load ptr, ptr %2, align 8
  %13 = getelementptr inbounds nuw %struct._proto_node, ptr %12, i32 0, i32 5
  %14 = load ptr, ptr %13, align 8
  %15 = getelementptr inbounds nuw %struct.field_info, ptr %14, i32 0, i32 6
  %16 = load i32, ptr %15, align 4
  %17 = or i32 %16, 2
  %18 = load ptr, ptr %2, align 8
  %19 = getelementptr inbounds nuw %struct._proto_node, ptr %18, i32 0, i32 5
  %20 = load ptr, ptr %19, align 8
  %21 = getelementptr inbounds nuw %struct.field_info, ptr %20, i32 0, i32 6
  store i32 %17, ptr %21, align 4
  br label %22

22:                                               ; preds = %11, %6
  br label %23

23:                                               ; preds = %22
  br label %24

24:                                               ; preds = %23, %1
  ret void
}

; Function Attrs: null_pointer_is_valid sspstrong uwtable
define internal ptr @rtpproxy_add_tid(i1 noundef zeroext %0, ptr noundef %1, ptr noundef %2, ptr noundef %3, ptr noundef %4, ptr noundef %5) #0 {
  %7 = alloca i8, align 1
  %8 = alloca ptr, align 8
  %9 = alloca ptr, align 8
  %10 = alloca ptr, align 8
  %11 = alloca ptr, align 8
  %12 = alloca ptr, align 8
  %13 = alloca ptr, align 8
  %14 = alloca ptr, align 8
  %15 = alloca %struct.nstime_t, align 8
  %16 = zext i1 %0 to i8
  store i8 %16, ptr %7, align 1
  store ptr %1, ptr %8, align 8
  store ptr %2, ptr %9, align 8
  store ptr %3, ptr %10, align 8
  store ptr %4, ptr %11, align 8
  store ptr %5, ptr %12, align 8
  call void @llvm.lifetime.start.p0(i64 8, ptr %13) #12
  call void @llvm.lifetime.start.p0(i64 8, ptr %14) #12
  %17 = load ptr, ptr %9, align 8
  %18 = getelementptr inbounds nuw %struct._packet_info, ptr %17, i32 0, i32 8
  %19 = load ptr, ptr %18, align 8
  %20 = getelementptr inbounds nuw %struct._frame_data, ptr %19, i32 0, i32 11
  %21 = load i16, ptr %20, align 1
  %22 = lshr i16 %21, 3
  %23 = and i16 %22, 1
  %24 = zext i16 %23 to i32
  %25 = icmp ne i32 %24, 0
  br i1 %25, label %62, label %26

26:                                               ; preds = %6
  %27 = load i8, ptr %7, align 1, !range !8, !noundef !9
  %28 = trunc i8 %27 to i1
  br i1 %28, label %29, label %46

29:                                               ; preds = %26
  %30 = call ptr @wmem_file_scope()
  %31 = call noalias ptr @wmem_alloc0(ptr noundef %30, i64 noundef 32) #13
  store ptr %31, ptr %13, align 8
  %32 = load ptr, ptr %9, align 8
  %33 = getelementptr inbounds nuw %struct._packet_info, ptr %32, i32 0, i32 3
  %34 = load i32, ptr %33, align 4
  %35 = load ptr, ptr %13, align 8
  %36 = getelementptr inbounds nuw %struct._rtpproxy_info, ptr %35, i32 0, i32 0
  store i32 %34, ptr %36, align 8
  %37 = load ptr, ptr %13, align 8
  %38 = getelementptr inbounds nuw %struct._rtpproxy_info, ptr %37, i32 0, i32 2
  %39 = load ptr, ptr %9, align 8
  %40 = getelementptr inbounds nuw %struct._packet_info, ptr %39, i32 0, i32 4
  call void @llvm.memcpy.p0.p0.i64(ptr align 8 %38, ptr align 8 %40, i64 16, i1 false)
  %41 = load ptr, ptr %11, align 8
  %42 = getelementptr inbounds nuw %struct._rtpproxy_conv_info, ptr %41, i32 0, i32 0
  %43 = load ptr, ptr %42, align 8
  %44 = load ptr, ptr %12, align 8
  %45 = load ptr, ptr %13, align 8
  call void @wmem_tree_insert_string(ptr noundef %43, ptr noundef %44, ptr noundef %45, i32 noundef 0)
  br label %61

46:                                               ; preds = %26
  %47 = load ptr, ptr %11, align 8
  %48 = getelementptr inbounds nuw %struct._rtpproxy_conv_info, ptr %47, i32 0, i32 0
  %49 = load ptr, ptr %48, align 8
  %50 = load ptr, ptr %12, align 8
  %51 = call ptr @wmem_tree_lookup_string(ptr noundef %49, ptr noundef %50, i32 noundef 0)
  store ptr %51, ptr %13, align 8
  %52 = load ptr, ptr %13, align 8
  %53 = icmp ne ptr %52, null
  br i1 %53, label %54, label %60

54:                                               ; preds = %46
  %55 = load ptr, ptr %9, align 8
  %56 = getelementptr inbounds nuw %struct._packet_info, ptr %55, i32 0, i32 3
  %57 = load i32, ptr %56, align 4
  %58 = load ptr, ptr %13, align 8
  %59 = getelementptr inbounds nuw %struct._rtpproxy_info, ptr %58, i32 0, i32 1
  store i32 %57, ptr %59, align 4
  br label %60

60:                                               ; preds = %54, %46
  br label %61

61:                                               ; preds = %60, %29
  br label %130

62:                                               ; preds = %6
  %63 = load ptr, ptr %11, align 8
  %64 = getelementptr inbounds nuw %struct._rtpproxy_conv_info, ptr %63, i32 0, i32 0
  %65 = load ptr, ptr %64, align 8
  %66 = load ptr, ptr %12, align 8
  %67 = call ptr @wmem_tree_lookup_string(ptr noundef %65, ptr noundef %66, i32 noundef 0)
  store ptr %67, ptr %13, align 8
  %68 = load ptr, ptr %13, align 8
  %69 = icmp ne ptr %68, null
  br i1 %69, label %70, label %129

70:                                               ; preds = %62
  %71 = load i8, ptr %7, align 1, !range !8, !noundef !9
  %72 = trunc i8 %71 to i1
  br i1 %72, label %73, label %78

73:                                               ; preds = %70
  %74 = load ptr, ptr %13, align 8
  %75 = getelementptr inbounds nuw %struct._rtpproxy_info, ptr %74, i32 0, i32 1
  %76 = load i32, ptr %75, align 4
  %77 = icmp ne i32 %76, 0
  br i1 %77, label %83, label %129

78:                                               ; preds = %70
  %79 = load ptr, ptr %13, align 8
  %80 = getelementptr inbounds nuw %struct._rtpproxy_info, ptr %79, i32 0, i32 0
  %81 = load i32, ptr %80, align 8
  %82 = icmp ne i32 %81, 0
  br i1 %82, label %83, label %129

83:                                               ; preds = %78, %73
  call void @llvm.lifetime.start.p0(i64 16, ptr %15) #12
  %84 = load ptr, ptr %10, align 8
  %85 = load i8, ptr %7, align 1, !range !8, !noundef !9
  %86 = trunc i8 %85 to i1
  br i1 %86, label %87, label %89

87:                                               ; preds = %83
  %88 = load i32, ptr @hf_rtpproxy_response_in, align 4
  br label %91

89:                                               ; preds = %83
  %90 = load i32, ptr @hf_rtpproxy_request_in, align 4
  br label %91

91:                                               ; preds = %89, %87
  %92 = phi i32 [ %88, %87 ], [ %90, %89 ]
  %93 = load ptr, ptr %8, align 8
  %94 = load i8, ptr %7, align 1, !range !8, !noundef !9
  %95 = trunc i8 %94 to i1
  br i1 %95, label %96, label %100

96:                                               ; preds = %91
  %97 = load ptr, ptr %13, align 8
  %98 = getelementptr inbounds nuw %struct._rtpproxy_info, ptr %97, i32 0, i32 1
  %99 = load i32, ptr %98, align 4
  br label %104

100:                                              ; preds = %91
  %101 = load ptr, ptr %13, align 8
  %102 = getelementptr inbounds nuw %struct._rtpproxy_info, ptr %101, i32 0, i32 0
  %103 = load i32, ptr %102, align 8
  br label %104

104:                                              ; preds = %100, %96
  %105 = phi i32 [ %99, %96 ], [ %103, %100 ]
  %106 = call ptr @proto_tree_add_uint(ptr noundef %84, i32 noundef %92, ptr noundef %93, i32 noundef 0, i32 noundef 0, i32 noundef %105)
  store ptr %106, ptr %14, align 8
  %107 = load ptr, ptr %14, align 8
  call void @proto_item_set_generated(ptr noundef %107)
  %108 = load i8, ptr %7, align 1, !range !8, !noundef !9
  %109 = trunc i8 %108 to i1
  br i1 %109, label %128, label %110

110:                                              ; preds = %104
  %111 = load ptr, ptr %9, align 8
  %112 = getelementptr inbounds nuw %struct._packet_info, ptr %111, i32 0, i32 4
  %113 = load ptr, ptr %13, align 8
  %114 = getelementptr inbounds nuw %struct._rtpproxy_info, ptr %113, i32 0, i32 2
  call void @nstime_delta(ptr noundef %15, ptr noundef %112, ptr noundef %114)
  %115 = load ptr, ptr %10, align 8
  %116 = load i32, ptr @hf_rtpproxy_response_time, align 4
  %117 = load ptr, ptr %8, align 8
  %118 = call ptr @proto_tree_add_time(ptr noundef %115, i32 noundef %116, ptr noundef %117, i32 noundef 0, i32 noundef 0, ptr noundef %15)
  store ptr %118, ptr %14, align 8
  %119 = load ptr, ptr %14, align 8
  call void @proto_item_set_generated(ptr noundef %119)
  %120 = call i32 @nstime_cmp(ptr noundef @rtpproxy_timeout_ns, ptr noundef %15)
  %121 = icmp slt i32 %120, 0
  br i1 %121, label %122, label %127

122:                                              ; preds = %110
  %123 = load ptr, ptr %9, align 8
  %124 = load ptr, ptr %10, align 8
  %125 = call double @nstime_to_sec(ptr noundef %15)
  %126 = call ptr (ptr, ptr, ptr, ptr, ...) @expert_add_info_format(ptr noundef %123, ptr noundef %124, ptr noundef @ei_rtpproxy_timeout, ptr noundef @.str.155, double noundef %125)
  br label %127

127:                                              ; preds = %122, %110
  br label %128

128:                                              ; preds = %127, %104
  call void @llvm.lifetime.end.p0(i64 16, ptr %15) #12
  br label %129

129:                                              ; preds = %128, %78, %73, %62
  br label %130

130:                                              ; preds = %129, %61
  %131 = load ptr, ptr %13, align 8
  call void @llvm.lifetime.end.p0(i64 8, ptr %14) #12
  call void @llvm.lifetime.end.p0(i64 8, ptr %13) #12
  ret ptr %131
}