; Function Attrs: null_pointer_is_valid sspstrong uwtable
define internal fastcc ptr @rtpproxy_add_tid(i1 noundef zeroext %0, ptr noundef %1, ptr noundef %2, ptr noundef %3, ptr noundef readonly captures(none) %4, ptr noundef %5) unnamed_addr #0 {
  %7 = alloca %struct.nstime_t, align 8
  %8 = getelementptr inbounds nuw i8, ptr %2, i64 80
  %9 = load ptr, ptr %8, align 8
  %10 = getelementptr inbounds nuw i8, ptr %9, i64 57
  %11 = load i16, ptr %10, align 1
  %12 = and i16 %11, 8
  %.not = icmp eq i16 %12, 0
  br i1 %.not, label %13, label %29

13:                                               ; preds = %6
  br i1 %0, label %14, label %22

14:                                               ; preds = %13
  %15 = tail call ptr @wmem_file_scope()
  %16 = tail call noalias dereferenceable_or_null(32) ptr @wmem_alloc0(ptr noundef %15, i64 noundef 32) #11
  %17 = getelementptr inbounds nuw i8, ptr %2, i64 20
  %18 = load i32, ptr %17, align 4
  store i32 %18, ptr %16, align 8
  %19 = getelementptr inbounds nuw i8, ptr %16, i64 8
  %20 = getelementptr inbounds nuw i8, ptr %2, i64 24
  tail call void @llvm.memcpy.p0.p0.i64(ptr noundef nonnull align 8 dereferenceable(16) %19, ptr noundef nonnull align 8 dereferenceable(16) %20, i64 16, i1 false)
  %21 = load ptr, ptr %4, align 8
  tail call void @wmem_tree_insert_string(ptr noundef %21, ptr noundef %5, ptr noundef %16, i32 noundef 0)
  br label %69

22:                                               ; preds = %13
  %23 = load ptr, ptr %4, align 8
  %24 = tail call ptr @wmem_tree_lookup_string(ptr noundef %23, ptr noundef %5, i32 noundef 0)
  %.not38 = icmp eq ptr %24, null
  br i1 %.not38, label %69, label %25

25:                                               ; preds = %22
  %26 = getelementptr inbounds nuw i8, ptr %2, i64 20
  %27 = load i32, ptr %26, align 4
  %28 = getelementptr inbounds nuw i8, ptr %24, i64 4
  store i32 %27, ptr %28, align 4
  br label %69

29:                                               ; preds = %6
  %30 = load ptr, ptr %4, align 8
  %31 = tail call ptr @wmem_tree_lookup_string(ptr noundef %30, ptr noundef %5, i32 noundef 0)
  %.not39 = icmp eq ptr %31, null
  br i1 %.not39, label %69, label %32

32:                                               ; preds = %29
  br i1 %0, label %33, label %36

33:                                               ; preds = %32
  %34 = getelementptr inbounds nuw i8, ptr %31, i64 4
  %35 = load i32, ptr %34, align 4
  %.not41 = icmp eq i32 %35, 0
  br i1 %.not41, label %69, label %38

36:                                               ; preds = %32
  %37 = load i32, ptr %31, align 8
  %.not40 = icmp eq i32 %37, 0
  br i1 %.not40, label %69, label %38

38:                                               ; preds = %36, %33
  %39 = phi i32 [ %37, %36 ], [ %35, %33 ]
  call void @llvm.lifetime.start.p0(i64 16, ptr nonnull %7) #10
  %40 = load i32, ptr @hf_rtpproxy_response_in, align 4
  %41 = load i32, ptr @hf_rtpproxy_request_in, align 4
  %42 = select i1 %0, i32 %40, i32 %41
  %43 = tail call ptr @proto_tree_add_uint(ptr noundef %3, i32 noundef %42, ptr noundef %1, i32 noundef 0, i32 noundef 0, i32 noundef %39)
  %.not.i = icmp eq ptr %43, null
  br i1 %.not.i, label %proto_item_set_generated.exit, label %44

44:                                               ; preds = %38
  %45 = getelementptr inbounds nuw i8, ptr %43, i64 40
  %46 = load ptr, ptr %45, align 8
  %.not5.i = icmp eq ptr %46, null
  br i1 %.not5.i, label %proto_item_set_generated.exit, label %47

47:                                               ; preds = %44
  %48 = getelementptr inbounds nuw i8, ptr %46, i64 28
  %49 = load i32, ptr %48, align 4
  %50 = or i32 %49, 2
  store i32 %50, ptr %48, align 4
  br label %proto_item_set_generated.exit

proto_item_set_generated.exit:                    ; preds = %38, %44, %47
  br i1 %0, label %68, label %51

51:                                               ; preds = %proto_item_set_generated.exit
  %52 = getelementptr inbounds nuw i8, ptr %2, i64 24
  %53 = getelementptr inbounds nuw i8, ptr %31, i64 8
  call void @nstime_delta(ptr noundef nonnull %7, ptr noundef nonnull %52, ptr noundef nonnull %53)
  %54 = load i32, ptr @hf_rtpproxy_response_time, align 4
  %55 = call ptr @proto_tree_add_time(ptr noundef %3, i32 noundef %54, ptr noundef %1, i32 noundef 0, i32 noundef 0, ptr noundef nonnull %7)
  %.not.i42 = icmp eq ptr %55, null
  br i1 %.not.i42, label %proto_item_set_generated.exit44, label %56

56:                                               ; preds = %51
  %57 = getelementptr inbounds nuw i8, ptr %55, i64 40
  %58 = load ptr, ptr %57, align 8
  %.not5.i43 = icmp eq ptr %58, null
  br i1 %.not5.i43, label %proto_item_set_generated.exit44, label %59

59:                                               ; preds = %56
  %60 = getelementptr inbounds nuw i8, ptr %58, i64 28
  %61 = load i32, ptr %60, align 4
  %62 = or i32 %61, 2
  store i32 %62, ptr %60, align 4
  br label %proto_item_set_generated.exit44

proto_item_set_generated.exit44:                  ; preds = %51, %56, %59
  %63 = call i32 @nstime_cmp(ptr noundef nonnull @rtpproxy_timeout_ns, ptr noundef nonnull %7)
  %64 = icmp slt i32 %63, 0
  br i1 %64, label %65, label %68

65:                                               ; preds = %proto_item_set_generated.exit44
  %66 = call double @nstime_to_sec(ptr noundef nonnull %7)
  %67 = call ptr (ptr, ptr, ptr, ptr, ...) @expert_add_info_format(ptr noundef %2, ptr noundef %3, ptr noundef nonnull @ei_rtpproxy_timeout, ptr noundef nonnull @.str.155, double noundef %66)
  br label %68

68:                                               ; preds = %proto_item_set_generated.exit44, %65, %proto_item_set_generated.exit
  call void @llvm.lifetime.end.p0(i64 16, ptr nonnull %7) #10
  br label %69

69:                                               ; preds = %29, %33, %36, %68, %14, %25, %22
  %.0 = phi ptr [ %31, %68 ], [ %31, %33 ], [ %31, %36 ], [ null, %29 ], [ %16, %14 ], [ %24, %25 ], [ null, %22 ]
  ret ptr %.0
}